target datalayout = "e-m:e-p270:32:32-p271:32:32-p272:64:64-i64:64-i128:128-f80:128-n8:16:32:64-S128"
target triple = "x86_64-pc-linux-gnu"

%struct.lua_State = type { i8, i8, i8, i8, i8, i8, i8, ptr, ptr, ptr, ptr, ptr, ptr, ptr, ptr, i32, i32, i16, i16, i32, ptr, ptr, ptr, ptr, ptr }

@.str.4 = private unnamed_addr constant [17 x i8] c"C stack overflow\00", align 1

; Function Attrs: mustprogress uwtable
define hidden void @_Z16luaD_checkCstackP9lua_State(ptr noundef %0) #2 {
  %2 = alloca ptr, align 8
  %3 = alloca i32, align 4
  store ptr %0, ptr %2, align 8, !tbaa !20
  call void @llvm.lifetime.start.p0(i64 4, ptr %3) #15
  store i32 225, ptr %3, align 4, !tbaa !23
  %4 = load ptr, ptr %2, align 8, !tbaa !20
  %5 = getelementptr inbounds nuw %struct.lua_State, ptr %4, i32 0, i32 17
  %6 = load i16, ptr %5, align 8, !tbaa !72
  %7 = zext i16 %6 to i32
  %8 = icmp eq i32 %7, 200
  br i1 %8, label %9, label %11

9:                                                ; preds = %1
  %10 = load ptr, ptr %2, align 8, !tbaa !20
  call void (ptr, ptr, ...) @_Z14luaG_runerrorLP9lua_StatePKcz(ptr noundef %10, ptr noundef @.str.4) #17
  unreachable

11:                                               ; preds = %1
  %12 = load ptr, ptr %2, align 8, !tbaa !20
  %13 = getelementptr inbounds nuw %struct.lua_State, ptr %12, i32 0, i32 17
  %14 = load i16, ptr %13, align 8, !tbaa !72
  %15 = zext i16 %14 to i32
  %16 = icmp sge i32 %15, 225
  br i1 %16, label %17, label %19

17:                                               ; preds = %11
  %18 = load ptr, ptr %2, align 8, !tbaa !20
  call void @_Z10luaD_throwP9lua_Statei(ptr noundef %18, i32 noundef 5) #17
  unreachable

19:                                               ; preds = %11
  br label %20

20:                                               ; preds = %19
  call void @llvm.lifetime.end.p0(i64 4, ptr %3) #15
  ret void
}