; Function Attrs: mustprogress uwtable
define hidden void @_Z16luaD_checkCstackP9lua_State(ptr noundef %0) local_unnamed_addr #0 {
  %2 = getelementptr inbounds nuw i8, ptr %0, i64 80
  %3 = load i16, ptr %2, align 8, !tbaa !55
  %4 = icmp eq i16 %3, 200
  br i1 %4, label %5, label %6

5:                                                ; preds = %1
  tail call void (ptr, ptr, ...) @_Z14luaG_runerrorLP9lua_StatePKcz(ptr noundef nonnull %0, ptr noundef nonnull @.str.4) #18
  unreachable

6:                                                ; preds = %1
  %7 = icmp ugt i16 %3, 224
  br i1 %7, label %8, label %9

8:                                                ; preds = %6
  tail call void @_Z10luaD_throwP9lua_Statei(ptr noundef nonnull %0, i32 noundef 5) #18
  unreachable

9:                                                ; preds = %6
  ret void
}